Certificate:
    Data:
        Version: 3 (0x2)
        Serial Number: 256 (0x100)
        Signature Algorithm: sha256WithRSAEncryption
        Issuer: C=FR, ST=PACA, L=TOULON, O=ISEN, CN=Bastien/emailAddress=bastien.bongiorno@isen.yncrea.fr
        Validity
            Not Before: Mar 29 07:31:26 2022 GMT
            Not After : Mar 29 07:31:26 2023 GMT
        Subject: C=FR, ST=PACA, O=ISEN, CN=Bastien/emailAddress=bastien.bongiorno@isen.yncrea.fr
        Subject Public Key Info:
            Public Key Algorithm: rsaEncryption
                RSA Public-Key: (2048 bit)
                Modulus:
                    00:b4:24:5f:08:b0:9f:41:89:e7:26:dd:4b:f3:8a:
                    9a:a2:cc:31:b5:c3:0d:6a:aa:d0:34:71:98:b0:a4:
                    da:35:02:1f:47:f0:0a:ba:0f:88:96:a0:eb:ec:69:
                    18:65:f4:ee:20:c9:4b:15:23:cc:92:6d:43:de:7c:
                    7d:71:74:8c:9e:6a:b0:dd:1f:fd:e8:ba:dd:1f:12:
                    f5:f7:bc:7a:9e:80:69:7a:29:f9:f0:74:ff:00:fc:
                    03:4e:65:35:3d:55:79:3b:21:2f:33:17:2e:84:73:
                    a8:92:10:c9:39:46:f6:e7:6b:d4:31:27:62:22:24:
                    d8:7a:76:f5:7d:78:fd:9e:a4:28:4f:5b:95:95:eb:
                    a7:6e:24:05:c8:99:c5:9a:c6:28:8b:06:b8:68:ba:
                    8e:e8:d2:6f:00:98:18:d1:a0:b5:26:35:fa:10:c0:
                    ef:75:e2:29:cb:5b:35:54:e0:ac:fa:47:74:67:61:
                    75:95:4a:98:8b:10:3c:f6:fd:b5:ac:53:e9:db:a9:
                    97:db:fd:c1:c3:69:47:0f:76:c6:e0:61:07:e0:be:
                    f0:44:fc:a0:02:cc:b9:65:78:08:13:6d:4b:67:53:
                    7c:68:f8:77:8c:ec:55:cf:72:db:1d:44:3f:d4:e2:
                    28:c9:56:b9:c4:06:26:8e:98:ad:5e:48:27:7e:51:
                    a7:85
                Exponent: 65537 (0x10001)
        X509v3 extensions:
            X509v3 Subject Key Identifier: 
                AD:2F:25:DC:09:98:76:C5:94:4C:C7:B3:06:C9:15:53:D1:A9:2A:52
            X509v3 Authority Key Identifier: 
                keyid:DC:F7:08:33:9B:25:40:5A:26:E9:A3:76:37:C8:F9:FB:3B:60:E7:5D

            X509v3 Basic Constraints: critical
                CA:TRUE
    Signature Algorithm: sha256WithRSAEncryption
         97:9f:7f:a2:78:0b:73:d5:8d:21:74:99:75:10:88:f5:89:71:
         fc:df:60:9b:1d:b1:18:5c:71:46:6c:38:34:76:83:85:90:65:
         18:6b:a9:37:62:cb:63:40:d6:c5:81:9d:24:c3:d8:bd:84:b6:
         f2:ae:1d:4d:05:0c:a4:c7:d4:77:a6:89:ba:3c:8d:2d:8d:fe:
         56:c7:45:e3:57:f9:3f:23:8d:5a:dc:fa:ba:ff:ae:57:16:7a:
         7a:8a:7a:97:4a:8d:79:67:45:e6:5c:37:d5:b7:b5:c2:a2:ff:
         5f:86:2f:e5:76:1b:62:e5:e3:5b:fc:47:99:75:ea:3e:4e:77:
         65:60:77:50:02:3b:6a:14:4e:4c:6e:d7:fa:22:9b:80:ab:e0:
         c0:d8:06:4f:07:df:69:bd:79:0a:8c:6c:27:ae:bb:da:a3:ff:
         b4:ee:57:67:b7:22:2c:33:09:fb:64:45:87:55:23:d1:9e:12:
         44:c1:8c:99:77:f2:ad:10:ff:18:8c:62:98:30:79:f6:6f:64:
         b8:fb:d0:ab:c0:14:cc:c2:79:9b:a8:79:5b:db:f6:04:23:71:
         ff:1d:3f:7b:a0:0a:1f:5c:63:e6:dc:03:e4:76:60:eb:61:49:
         7c:73:4c:7c:29:63:3c:71:7e:f0:f8:e9:68:2a:98:68:ce:58:
         cb:60:20:ee
-----BEGIN CERTIFICATE-----
MIIDvDCCAqSgAwIBAgICAQAwDQYJKoZIhvcNAQELBQAwfzELMAkGA1UEBhMCRlIx
DTALBgNVBAgMBFBBQ0ExDzANBgNVBAcMBlRPVUxPTjENMAsGA1UECgwESVNFTjEQ
MA4GA1UEAwwHQmFzdGllbjEvMC0GCSqGSIb3DQEJARYgYmFzdGllbi5ib25naW9y
bm9AaXNlbi55bmNyZWEuZnIwHhcNMjIwMzI5MDczMTI2WhcNMjMwMzI5MDczMTI2
WjBuMQswCQYDVQQGEwJGUjENMAsGA1UECAwEUEFDQTENMAsGA1UECgwESVNFTjEQ
MA4GA1UEAwwHQmFzdGllbjEvMC0GCSqGSIb3DQEJARYgYmFzdGllbi5ib25naW9y
bm9AaXNlbi55bmNyZWEuZnIwggEiMA0GCSqGSIb3DQEBAQUAA4IBDwAwggEKAoIB
AQC0JF8IsJ9Biecm3UvzipqizDG1ww1qqtA0cZiwpNo1Ah9H8Aq6D4iWoOvsaRhl
9O4gyUsVI8ySbUPefH1xdIyearDdH/3out0fEvX3vHqegGl6KfnwdP8A/ANOZTU9
VXk7IS8zFy6Ec6iSEMk5Rvbna9QxJ2IiJNh6dvV9eP2epChPW5WV66duJAXImcWa
xiiLBrhouo7o0m8AmBjRoLUmNfoQwO914inLWzVU4Kz6R3RnYXWVSpiLEDz2/bWs
U+nbqZfb/cHDaUcPdsbgYQfgvvBE/KACzLlleAgTbUtnU3xo+HeM7FXPctsdRD/U
4ijJVrnEBiaOmK1eSCd+UaeFAgMBAAGjUzBRMB0GA1UdDgQWBBStLyXcCZh2xZRM
x7MGyRVT0akqUjAfBgNVHSMEGDAWgBTc9wgzmyVAWibpo3Y3yPn7O2DnXTAPBgNV
HRMBAf8EBTADAQH/MA0GCSqGSIb3DQEBCwUAA4IBAQCXn3+ieAtz1Y0hdJl1EIj1
iXH832CbHbEYXHFGbDg0doOFkGUYa6k3YstjQNbFgZ0kw9i9hLbyrh1NBQykx9R3
pom6PI0tjf5Wx0XjV/k/I41a3Pq6/65XFnp6inqXSo15Z0XmXDfVt7XCov9fhi/l
dhti5eNb/EeZdeo+TndlYHdQAjtqFE5Mbtf6IpuAq+DA2AZPB99pvXkKjGwnrrva
o/+07ldntyIsMwn7ZEWHVSPRnhJEwYyZd/KtEP8YjGKYMHn2b2S4+9CrwBTMwnmb
qHlb2/YEI3H/HT97oAofXGPm3APkdmDrYUl8c0x8KWM8cX7w+OloKphozljLYCDu
-----END CERTIFICATE-----
